target datalayout = "e-m:e-p270:32:32-p271:32:32-p272:64:64-i64:64-i128:128-f80:128-n8:16:32:64-S128"
target triple = "x86_64-pc-linux-gnu"

%class.LIR_Opr = type { i64 }
%class.Instruction = type { ptr, i32, i32, i32, ptr, ptr, ptr, %class.LIR_Opr, i32, ptr, ptr, ptr, ptr }
%class.ProfileInvoke = type { %class.Instruction, ptr, ptr }

; Function Attrs: mustprogress nounwind uwtable
define linkonce_odr hidden noundef ptr @_ZN13ProfileInvoke5stateEv(ptr noundef nonnull align 8 dereferenceable(112) %0) #1 comdat align 2 {
  %2 = alloca ptr, align 8
  store ptr %0, ptr %2, align 8
  %3 = load ptr, ptr %2, align 8
  %4 = getelementptr inbounds %class.ProfileInvoke, ptr %3, i32 0, i32 2
  %5 = load ptr, ptr %4, align 8
  ret ptr %5
}

; Function Attrs: mustprogress nounwind uwtable
define hidden void @_ZN13ProfileInvoke15state_values_doEP12ValueVisitor(ptr noundef nonnull align 8 dereferenceable(112) %0, ptr noundef %1) unnamed_addr #1 align 2 {
  %3 = alloca ptr, align 8
  %4 = alloca ptr, align 8
  store ptr %0, ptr %3, align 8
  store ptr %1, ptr %4, align 8
  %5 = load ptr, ptr %3, align 8
  %6 = call noundef ptr @_ZN13ProfileInvoke5stateEv(ptr noundef nonnull align 8 dereferenceable(112) %5)
  %7 = icmp ne ptr %6, null
  br i1 %7, label %8, label %11

8:                                                ; preds = %2
  %9 = call noundef ptr @_ZN13ProfileInvoke5stateEv(ptr noundef nonnull align 8 dereferenceable(112) %5)
  %10 = load ptr, ptr %4, align 8
  call void @_ZN10ValueStack9values_doEP12ValueVisitor(ptr noundef nonnull align 8 dereferenceable(81) %9, ptr noundef %10)
  br label %11

11:                                               ; preds = %8, %2
  ret void
}