; Function Attrs: mustprogress nounwind uwtable
define hidden void @_ZN13ProfileInvoke15state_values_doEP12ValueVisitor(ptr nocapture noundef nonnull readonly align 8 dereferenceable(112) %0, ptr noundef %1) unnamed_addr #1 align 2 {
  %3 = getelementptr inbounds i8, ptr %0, i64 104
  %4 = load ptr, ptr %3, align 8
  %.not = icmp eq ptr %4, null
  br i1 %.not, label %6, label %5

5:                                                ; preds = %2
  tail call void @_ZN10ValueStack9values_doEP12ValueVisitor(ptr noundef nonnull align 8 dereferenceable(81) %4, ptr noundef %1) #13
  br label %6

6:                                                ; preds = %5, %2
  ret void
}